; Function Attrs: nounwind uwtable
define void @Ivy_ObjUpdateLevel_rec(ptr noundef %0, ptr noundef %1) local_unnamed_addr #1 {
  %3 = tail call noalias dereferenceable_or_null(16) ptr @malloc(i64 noundef 16) #18
  %4 = getelementptr inbounds nuw i8, ptr %3, i64 4
  store i32 0, ptr %4, align 4
  store i32 10, ptr %3, align 8
  %5 = tail call noalias dereferenceable_or_null(80) ptr @malloc(i64 noundef 80) #18
  %6 = getelementptr inbounds nuw i8, ptr %3, i64 8
  store ptr %5, ptr %6, align 8
  tail call void @Ivy_ObjCollectFanouts(ptr noundef %0, ptr noundef %1, ptr noundef nonnull %3) #19
  %.val23 = load i32, ptr %4, align 4
  %7 = icmp sgt i32 %.val23, 0
  br i1 %7, label %.lr.ph, label %.critedge

.lr.ph:                                           ; preds = %2, %39
  %.val27 = phi i32 [ %.val, %39 ], [ %.val23, %2 ]
  %indvars.iv = phi i64 [ %indvars.iv.next, %39 ], [ 0, %2 ]
  %.val19 = load ptr, ptr %6, align 8
  %8 = getelementptr inbounds nuw ptr, ptr %.val19, i64 %indvars.iv
  %9 = load ptr, ptr %8, align 8
  %.not = icmp eq ptr %9, null
  br i1 %.not, label %.critedge.thread, label %10

10:                                               ; preds = %.lr.ph
  %11 = getelementptr i8, ptr %9, i64 8
  %.val20 = load i32, ptr %11, align 8
  %12 = and i32 %.val20, 15
  switch i32 %12, label %13 [
    i32 4, label %39
    i32 2, label %39
  ]

13:                                               ; preds = %10
  %14 = icmp eq i32 %12, 6
  %15 = getelementptr i8, ptr %9, i64 16
  %.val5.i = load ptr, ptr %15, align 8
  %16 = ptrtoint ptr %.val5.i to i64
  %17 = and i64 %16, -2
  %18 = inttoptr i64 %17 to ptr
  %19 = getelementptr inbounds nuw i8, ptr %18, i64 8
  %20 = load i32, ptr %19, align 8
  %21 = lshr i32 %20, 11
  %22 = getelementptr i8, ptr %9, i64 24
  %.val7.i = load ptr, ptr %22, align 8
  %23 = ptrtoint ptr %.val7.i to i64
  %24 = and i64 %23, -2
  %25 = inttoptr i64 %24 to ptr
  %26 = getelementptr inbounds nuw i8, ptr %25, i64 8
  %27 = load i32, ptr %26, align 8
  %28 = lshr i32 %27, 11
  %29 = icmp samesign ugt i32 %21, %28
  %spec.select.i = select i1 %29, ptr %18, ptr %25
  %.in.in.i = getelementptr inbounds nuw i8, ptr %spec.select.i, i64 8
  %.in.i = load i32, ptr %.in.in.i, align 8
  %30 = lshr i32 %.in.i, 11
  %31 = select i1 %14, i32 2, i32 1
  %32 = add nuw nsw i32 %30, %31
  %33 = lshr i32 %.val20, 11
  %34 = icmp eq i32 %33, %32
  br i1 %34, label %39, label %35

35:                                               ; preds = %13
  %36 = shl i32 %32, 11
  %37 = and i32 %.val20, 2047
  %38 = or disjoint i32 %36, %37
  store i32 %38, ptr %11, align 8
  tail call void @Ivy_ObjUpdateLevel_rec(ptr noundef %0, ptr noundef nonnull %9)
  %.val.pre = load i32, ptr %4, align 4
  br label %39

39:                                               ; preds = %10, %10, %13, %35
  %.val = phi i32 [ %.val27, %10 ], [ %.val27, %10 ], [ %.val27, %13 ], [ %.val.pre, %35 ]
  %indvars.iv.next = add nuw nsw i64 %indvars.iv, 1
  %40 = sext i32 %.val to i64
  %41 = icmp slt i64 %indvars.iv.next, %40
  br i1 %41, label %.lr.ph, label %.critedge, !llvm.loop !20

.critedge:                                        ; preds = %39, %2
  %.pr = load ptr, ptr %6, align 8
  %.not.i = icmp eq ptr %.pr, null
  br i1 %.not.i, label %Vec_PtrFree.exit, label %.critedge.thread

.critedge.thread:                                 ; preds = %.lr.ph, %.critedge
  %42 = phi ptr [ %.pr, %.critedge ], [ %.val19, %.lr.ph ]
  tail call void @free(ptr noundef nonnull %42) #19
  br label %Vec_PtrFree.exit

Vec_PtrFree.exit:                                 ; preds = %.critedge, %.critedge.thread
  tail call void @free(ptr noundef nonnull %3) #19
  ret void
}